; Function Attrs: mustprogress uwtable
define noundef i32 @_Z32computeGlobalCommunicationPeriodPK10t_inputrec(ptr noundef readonly captures(none) %0) local_unnamed_addr #0 {
  %2 = getelementptr inbounds nuw i8, ptr %0, i64 32
  %3 = load i32, ptr %2, align 8, !tbaa !394
  %4 = icmp eq i32 %3, 0
  %5 = getelementptr inbounds nuw i8, ptr %0, i64 192
  %6 = load i32, ptr %5, align 8, !tbaa !395
  %7 = icmp eq i32 %6, 0
  br i1 %4, label %8, label %12

8:                                                ; preds = %1
  br i1 %7, label %9, label %.thread14

9:                                                ; preds = %8
  %10 = getelementptr inbounds nuw i8, ptr %0, i64 204
  %11 = load i32, ptr %10, align 4, !tbaa !396
  %.not = icmp eq i32 %11, 0
  br i1 %.not, label %.thread, label %27

12:                                               ; preds = %1
  br i1 %7, label %.thread, label %.thread14

.thread14:                                        ; preds = %8, %12
  %13 = getelementptr inbounds nuw i8, ptr %0, i64 196
  %14 = load i32, ptr %13, align 4, !tbaa !397
  br label %.thread

.thread:                                          ; preds = %9, %12, %.thread14
  %15 = phi i32 [ %14, %.thread14 ], [ 0, %12 ], [ 0, %9 ]
  %16 = getelementptr inbounds nuw i8, ptr %0, i64 204
  %17 = load i32, ptr %16, align 4, !tbaa !396
  %.not12 = icmp eq i32 %17, 0
  br i1 %.not12, label %21, label %18

18:                                               ; preds = %.thread
  %19 = getelementptr inbounds nuw i8, ptr %0, i64 212
  %20 = load i32, ptr %19, align 4, !tbaa !398
  br label %21

21:                                               ; preds = %.thread, %18
  %22 = phi i32 [ %20, %18 ], [ 0, %.thread ]
  %23 = tail call fastcc noundef i32 @_ZL4lcd3iii(i32 noundef %3, i32 noundef %15, i32 noundef %22)
  %24 = icmp sgt i32 %23, 200
  br i1 %24, label %25, label %27

25:                                               ; preds = %21
  %26 = tail call fastcc noundef i32 @_ZL4lcd3iii(i32 noundef %23, i32 noundef 200, i32 noundef 0)
  br label %27

27:                                               ; preds = %9, %21, %25
  %.0 = phi i32 [ %26, %25 ], [ %23, %21 ], [ 200, %9 ]
  ret i32 %.0
}